target datalayout = "e-m:e-p270:32:32-p271:32:32-p272:64:64-i64:64-i128:128-f80:128-n8:16:32:64-S128"
target triple = "x86_64-pc-linux-gnu"

%struct.SDL_AtomicInt = type { i32 }
%struct.VulkanRenderer = type { ptr, ptr, %struct.VkPhysicalDeviceProperties2, %struct.VkPhysicalDeviceDriverProperties, %struct.VkPhysicalDeviceFeatures, ptr, i8, i8, i8, i8, i8, i8, i32, i32, %struct.VulkanExtensions, i8, i8, i8, i8, ptr, %struct.VkPhysicalDeviceMemoryProperties, i8, ptr, i32, i32, i32, ptr, ptr, i32, i32, %struct.VulkanFencePool, ptr, ptr, ptr, ptr, ptr, ptr, ptr, i32, i32, ptr, i32, i32, %struct.SDL_AtomicInt, i32, ptr, i32, i32, ptr, i32, i32, ptr, i32, i32, ptr, i32, i32, ptr, i32, i32, ptr, i32, i32, ptr, i32, i32, ptr, ptr, ptr, ptr, ptr, ptr, ptr, ptr, ptr, ptr, ptr, i8, ptr, i32, i32, ptr, ptr, ptr, ptr, ptr, ptr, ptr, ptr, ptr, ptr, ptr, ptr, ptr, ptr, ptr, ptr, ptr, ptr, ptr, ptr, ptr, ptr, ptr, ptr, ptr, ptr, ptr, ptr, ptr, ptr, ptr, ptr, ptr, ptr, ptr, ptr, ptr, ptr, ptr, ptr, ptr, ptr, ptr, ptr, ptr, ptr, ptr, ptr, ptr, ptr, ptr, ptr, ptr, ptr, ptr, ptr, ptr, ptr, ptr, ptr, ptr, ptr, ptr, ptr, ptr, ptr, ptr, ptr, ptr, ptr, ptr, ptr, ptr, ptr, ptr, ptr, ptr, ptr, ptr, ptr, ptr, ptr, ptr, ptr, ptr, ptr, ptr, ptr, ptr, ptr, ptr, ptr, ptr, ptr, ptr, ptr, ptr, ptr, ptr, ptr, ptr, ptr, ptr, ptr, ptr, ptr, ptr, ptr, ptr, ptr }
%struct.VkPhysicalDeviceProperties2 = type { i32, ptr, %struct.VkPhysicalDeviceProperties }
%struct.VkPhysicalDeviceProperties = type { i32, i32, i32, i32, i32, [256 x i8], [16 x i8], %struct.VkPhysicalDeviceLimits, %struct.VkPhysicalDeviceSparseProperties }
%struct.VkPhysicalDeviceLimits = type { i32, i32, i32, i32, i32, i32, i32, i32, i32, i32, i32, i64, i64, i32, i32, i32, i32, i32, i32, i32, i32, i32, i32, i32, i32, i32, i32, i32, i32, i32, i32, i32, i32, i32, i32, i32, i32, i32, i32, i32, i32, i32, i32, i32, i32, i32, i32, i32, i32, i32, i32, i32, [3 x i32], i32, [3 x i32], i32, i32, i32, i32, i32, float, float, i32, [2 x i32], [2 x float], i32, i64, i64, i64, i64, i32, i32, i32, i32, float, float, i32, i32, i32, i32, i32, i32, i32, i32, i32, i32, i32, i32, i32, i32, i32, i32, float, i32, i32, i32, i32, [2 x float], [2 x float], float, float, i32, i32, i64, i64, i64 }
%struct.VkPhysicalDeviceSparseProperties = type { i32, i32, i32, i32, i32 }
%struct.VkPhysicalDeviceDriverProperties = type { i32, ptr, i32, [256 x i8], [256 x i8], %struct.VkConformanceVersion }
%struct.VkConformanceVersion = type { i8, i8, i8, i8 }
%struct.VkPhysicalDeviceFeatures = type { i32, i32, i32, i32, i32, i32, i32, i32, i32, i32, i32, i32, i32, i32, i32, i32, i32, i32, i32, i32, i32, i32, i32, i32, i32, i32, i32, i32, i32, i32, i32, i32, i32, i32, i32, i32, i32, i32, i32, i32, i32, i32, i32, i32, i32, i32, i32, i32, i32, i32, i32, i32, i32, i32, i32 }
%struct.VulkanExtensions = type { i8, i8, i8, i8, i8 }
%struct.VkPhysicalDeviceMemoryProperties = type { i32, [32 x %struct.VkMemoryType], i32, [16 x %struct.VkMemoryHeap] }
%struct.VkMemoryType = type { i32, i32 }
%struct.VkMemoryHeap = type { i64, i32 }
%struct.VulkanFencePool = type { ptr, ptr, i32, i32 }
%struct.VulkanBufferContainer = type { ptr, ptr, i32, i32, i8, ptr }
%struct.VulkanCommandBuffer = type { %struct.CommandBufferCommonHeader, ptr, ptr, ptr, ptr, i32, i32, ptr, i32, i32, ptr, i32, i32, ptr, ptr, [4 x ptr], i32, [4 x ptr], i32, ptr, %struct.VkViewport, %struct.VkRect2D, [4 x float], i8, ptr, i8, i8, i8, i8, i8, i8, i8, i8, i8, i8, ptr, ptr, ptr, ptr, ptr, ptr, ptr, [16 x ptr], [16 x i64], i32, i8, [16 x ptr], [16 x ptr], [8 x ptr], [8 x ptr], [16 x ptr], [16 x ptr], [8 x ptr], [8 x ptr], [8 x ptr], i32, [8 x ptr], [16 x ptr], [16 x ptr], [8 x ptr], [8 x ptr], [4 x ptr], [4 x ptr], [4 x ptr], ptr, i32, i32, ptr, i32, i32, ptr, i32, i32, ptr, i32, i32, ptr, i32, i32, ptr, i32, i32, ptr, i32, i32, ptr, i8, i8 }
%struct.CommandBufferCommonHeader = type { ptr, %struct.RenderPass, i8, %struct.Pass, i8, %struct.Pass, i8, i8, i8 }
%struct.RenderPass = type { ptr, i8, [4 x ptr], i32, ptr }
%struct.Pass = type { ptr, i8 }
%struct.VkViewport = type { float, float, float, float, float, float }
%struct.VkRect2D = type { %struct.VkOffset2D, %struct.VkExtent2D }
%struct.VkOffset2D = type { i32, i32 }
%struct.VkExtent2D = type { i32, i32 }
%struct.VulkanBuffer = type { ptr, i32, ptr, ptr, i32, i32, i64, %struct.SDL_AtomicInt, i8, i8, ptr }

; Function Attrs: nounwind uwtable
define internal void @VULKAN_INTERNAL_TrackBuffer(ptr noundef %0, ptr noundef %1) #0 {
  %3 = alloca ptr, align 8
  %4 = alloca ptr, align 8
  %5 = alloca i32, align 4
  %6 = alloca i32, align 4
  store ptr %0, ptr %3, align 8
  store ptr %1, ptr %4, align 8
  call void @llvm.lifetime.start.p0(i64 4, ptr %5) #9
  %7 = load ptr, ptr %3, align 8
  %8 = getelementptr inbounds nuw %struct.VulkanCommandBuffer, ptr %7, i32 0, i32 65
  %9 = load i32, ptr %8, align 8
  %10 = sub nsw i32 %9, 1
  store i32 %10, ptr %5, align 4
  br label %11

11:                                               ; preds = %27, %2
  %12 = load i32, ptr %5, align 4
  %13 = icmp sge i32 %12, 0
  br i1 %13, label %15, label %14

14:                                               ; preds = %11
  store i32 2, ptr %6, align 4
  br label %30

15:                                               ; preds = %11
  %16 = load ptr, ptr %3, align 8
  %17 = getelementptr inbounds nuw %struct.VulkanCommandBuffer, ptr %16, i32 0, i32 64
  %18 = load ptr, ptr %17, align 8
  %19 = load i32, ptr %5, align 4
  %20 = sext i32 %19 to i64
  %21 = getelementptr inbounds ptr, ptr %18, i64 %20
  %22 = load ptr, ptr %21, align 8
  %23 = load ptr, ptr %4, align 8
  %24 = icmp eq ptr %22, %23
  br i1 %24, label %25, label %26

25:                                               ; preds = %15
  store i32 1, ptr %6, align 4
  br label %30

26:                                               ; preds = %15
  br label %27

27:                                               ; preds = %26
  %28 = load i32, ptr %5, align 4
  %29 = sub nsw i32 %28, 1
  store i32 %29, ptr %5, align 4
  br label %11, !llvm.loop !125

30:                                               ; preds = %25, %14
  call void @llvm.lifetime.end.p0(i64 4, ptr %5) #9
  %31 = load i32, ptr %6, align 4
  switch i32 %31, label %74 [
    i32 2, label %32
    i32 1, label %73
  ]

32:                                               ; preds = %30
  %33 = load ptr, ptr %3, align 8
  %34 = getelementptr inbounds nuw %struct.VulkanCommandBuffer, ptr %33, i32 0, i32 65
  %35 = load i32, ptr %34, align 8
  %36 = load ptr, ptr %3, align 8
  %37 = getelementptr inbounds nuw %struct.VulkanCommandBuffer, ptr %36, i32 0, i32 66
  %38 = load i32, ptr %37, align 4
  %39 = icmp eq i32 %35, %38
  br i1 %39, label %40, label %56

40:                                               ; preds = %32
  %41 = load ptr, ptr %3, align 8
  %42 = getelementptr inbounds nuw %struct.VulkanCommandBuffer, ptr %41, i32 0, i32 66
  %43 = load i32, ptr %42, align 4
  %44 = add nsw i32 %43, 1
  store i32 %44, ptr %42, align 4
  %45 = load ptr, ptr %3, align 8
  %46 = getelementptr inbounds nuw %struct.VulkanCommandBuffer, ptr %45, i32 0, i32 64
  %47 = load ptr, ptr %46, align 8
  %48 = load ptr, ptr %3, align 8
  %49 = getelementptr inbounds nuw %struct.VulkanCommandBuffer, ptr %48, i32 0, i32 66
  %50 = load i32, ptr %49, align 4
  %51 = sext i32 %50 to i64
  %52 = mul i64 %51, 8
  %53 = call ptr @SDL_realloc_REAL(ptr noundef %47, i64 noundef %52) #11
  %54 = load ptr, ptr %3, align 8
  %55 = getelementptr inbounds nuw %struct.VulkanCommandBuffer, ptr %54, i32 0, i32 64
  store ptr %53, ptr %55, align 8
  br label %56

56:                                               ; preds = %40, %32
  %57 = load ptr, ptr %4, align 8
  %58 = load ptr, ptr %3, align 8
  %59 = getelementptr inbounds nuw %struct.VulkanCommandBuffer, ptr %58, i32 0, i32 64
  %60 = load ptr, ptr %59, align 8
  %61 = load ptr, ptr %3, align 8
  %62 = getelementptr inbounds nuw %struct.VulkanCommandBuffer, ptr %61, i32 0, i32 65
  %63 = load i32, ptr %62, align 8
  %64 = sext i32 %63 to i64
  %65 = getelementptr inbounds ptr, ptr %60, i64 %64
  store ptr %57, ptr %65, align 8
  %66 = load ptr, ptr %3, align 8
  %67 = getelementptr inbounds nuw %struct.VulkanCommandBuffer, ptr %66, i32 0, i32 65
  %68 = load i32, ptr %67, align 8
  %69 = add nsw i32 %68, 1
  store i32 %69, ptr %67, align 8
  %70 = load ptr, ptr %4, align 8
  %71 = getelementptr inbounds nuw %struct.VulkanBuffer, ptr %70, i32 0, i32 7
  %72 = call i32 @SDL_AddAtomicInt_REAL(ptr noundef %71, i32 noundef 1)
  br label %73

73:                                               ; preds = %56, %30
  ret void

74:                                               ; preds = %30
  unreachable
}

; Function Attrs: nounwind uwtable
define internal void @VULKAN_DrawIndexedPrimitivesIndirect(ptr noundef %0, ptr noundef %1, i32 noundef %2, i32 noundef %3) #0 {
  %5 = alloca ptr, align 8
  %6 = alloca ptr, align 8
  %7 = alloca i32, align 4
  %8 = alloca i32, align 4
  %9 = alloca ptr, align 8
  %10 = alloca ptr, align 8
  %11 = alloca ptr, align 8
  %12 = alloca i32, align 4
  %13 = alloca i32, align 4
  store ptr %0, ptr %5, align 8
  store ptr %1, ptr %6, align 8
  store i32 %2, ptr %7, align 4
  store i32 %3, ptr %8, align 4
  call void @llvm.lifetime.start.p0(i64 8, ptr %9) #9
  %14 = load ptr, ptr %5, align 8
  store ptr %14, ptr %9, align 8
  call void @llvm.lifetime.start.p0(i64 8, ptr %10) #9
  %15 = load ptr, ptr %9, align 8
  %16 = getelementptr inbounds nuw %struct.VulkanCommandBuffer, ptr %15, i32 0, i32 1
  %17 = load ptr, ptr %16, align 8
  store ptr %17, ptr %10, align 8
  call void @llvm.lifetime.start.p0(i64 8, ptr %11) #9
  %18 = load ptr, ptr %6, align 8
  %19 = getelementptr inbounds nuw %struct.VulkanBufferContainer, ptr %18, i32 0, i32 0
  %20 = load ptr, ptr %19, align 8
  store ptr %20, ptr %11, align 8
  call void @llvm.lifetime.start.p0(i64 4, ptr %12) #9
  store i32 20, ptr %12, align 4
  call void @llvm.lifetime.start.p0(i64 4, ptr %13) #9
  %21 = load ptr, ptr %10, align 8
  %22 = load ptr, ptr %9, align 8
  call void @VULKAN_INTERNAL_BindGraphicsDescriptorSets(ptr noundef %21, ptr noundef %22)
  %23 = load ptr, ptr %10, align 8
  %24 = getelementptr inbounds nuw %struct.VulkanRenderer, ptr %23, i32 0, i32 18
  %25 = load i8, ptr %24, align 8, !range !3, !noundef !4
  %26 = trunc i8 %25 to i1
  br i1 %26, label %27, label %41

27:                                               ; preds = %4
  %28 = load ptr, ptr %10, align 8
  %29 = getelementptr inbounds nuw %struct.VulkanRenderer, ptr %28, i32 0, i32 125
  %30 = load ptr, ptr %29, align 8
  %31 = load ptr, ptr %9, align 8
  %32 = getelementptr inbounds nuw %struct.VulkanCommandBuffer, ptr %31, i32 0, i32 2
  %33 = load ptr, ptr %32, align 8
  %34 = load ptr, ptr %11, align 8
  %35 = getelementptr inbounds nuw %struct.VulkanBuffer, ptr %34, i32 0, i32 2
  %36 = load ptr, ptr %35, align 8
  %37 = load i32, ptr %7, align 4
  %38 = zext i32 %37 to i64
  %39 = load i32, ptr %8, align 4
  %40 = load i32, ptr %12, align 4
  call void %30(ptr noundef %33, ptr noundef %36, i64 noundef %38, i32 noundef %39, i32 noundef %40)
  br label %67

41:                                               ; preds = %4
  store i32 0, ptr %13, align 4
  br label %42

42:                                               ; preds = %63, %41
  %43 = load i32, ptr %13, align 4
  %44 = load i32, ptr %8, align 4
  %45 = icmp ult i32 %43, %44
  br i1 %45, label %46, label %66

46:                                               ; preds = %42
  %47 = load ptr, ptr %10, align 8
  %48 = getelementptr inbounds nuw %struct.VulkanRenderer, ptr %47, i32 0, i32 125
  %49 = load ptr, ptr %48, align 8
  %50 = load ptr, ptr %9, align 8
  %51 = getelementptr inbounds nuw %struct.VulkanCommandBuffer, ptr %50, i32 0, i32 2
  %52 = load ptr, ptr %51, align 8
  %53 = load ptr, ptr %11, align 8
  %54 = getelementptr inbounds nuw %struct.VulkanBuffer, ptr %53, i32 0, i32 2
  %55 = load ptr, ptr %54, align 8
  %56 = load i32, ptr %7, align 4
  %57 = load i32, ptr %12, align 4
  %58 = load i32, ptr %13, align 4
  %59 = mul i32 %57, %58
  %60 = add i32 %56, %59
  %61 = zext i32 %60 to i64
  %62 = load i32, ptr %12, align 4
  call void %49(ptr noundef %52, ptr noundef %55, i64 noundef %61, i32 noundef 1, i32 noundef %62)
  br label %63

63:                                               ; preds = %46
  %64 = load i32, ptr %13, align 4
  %65 = add i32 %64, 1
  store i32 %65, ptr %13, align 4
  br label %42, !llvm.loop !41

66:                                               ; preds = %42
  br label %67

67:                                               ; preds = %66, %27
  %68 = load ptr, ptr %9, align 8
  %69 = load ptr, ptr %11, align 8
  call void @VULKAN_INTERNAL_TrackBuffer(ptr noundef %68, ptr noundef %69)
  call void @llvm.lifetime.end.p0(i64 4, ptr %13) #9
  call void @llvm.lifetime.end.p0(i64 4, ptr %12) #9
  call void @llvm.lifetime.end.p0(i64 8, ptr %11) #9
  call void @llvm.lifetime.end.p0(i64 8, ptr %10) #9
  call void @llvm.lifetime.end.p0(i64 8, ptr %9) #9
  ret void
}