; Function Attrs: nounwind uwtable
define internal void @VULKAN_DrawIndexedPrimitivesIndirect(ptr noundef %0, ptr noundef readonly captures(none) %1, i32 noundef %2, i32 noundef %3) #0 {
  %5 = getelementptr inbounds nuw i8, ptr %0, i64 128
  %6 = load ptr, ptr %5, align 8
  %7 = load ptr, ptr %1, align 8
  tail call fastcc void @VULKAN_INTERNAL_BindGraphicsDescriptorSets(ptr noundef %6, ptr noundef %0)
  %8 = getelementptr inbounds nuw i8, ptr %6, i64 1648
  %9 = load i8, ptr %8, align 8, !range !3, !noundef !4
  %10 = trunc nuw i8 %9 to i1
  br i1 %10, label %14, label %.preheader

.preheader:                                       ; preds = %4
  %.not = icmp eq i32 %3, 0
  br i1 %.not, label %.loopexit, label %.lr.ph

.lr.ph:                                           ; preds = %.preheader
  %11 = getelementptr inbounds nuw i8, ptr %6, i64 2928
  %12 = getelementptr inbounds nuw i8, ptr %0, i64 136
  %13 = getelementptr inbounds nuw i8, ptr %7, i64 16
  %wide.trip.count = zext i32 %3 to i64
  br label %22

14:                                               ; preds = %4
  %15 = getelementptr inbounds nuw i8, ptr %6, i64 2928
  %16 = load ptr, ptr %15, align 8
  %17 = getelementptr inbounds nuw i8, ptr %0, i64 136
  %18 = load ptr, ptr %17, align 8
  %19 = getelementptr inbounds nuw i8, ptr %7, i64 16
  %20 = load ptr, ptr %19, align 8
  %21 = zext i32 %2 to i64
  tail call void %16(ptr noundef %18, ptr noundef %20, i64 noundef %21, i32 noundef %3, i32 noundef 20) #13
  br label %.loopexit

22:                                               ; preds = %.lr.ph, %22
  %indvars.iv = phi i64 [ 0, %.lr.ph ], [ %indvars.iv.next, %22 ]
  %23 = load ptr, ptr %11, align 8
  %24 = load ptr, ptr %12, align 8
  %25 = load ptr, ptr %13, align 8
  %26 = trunc nuw i64 %indvars.iv to i32
  %27 = mul i32 %26, 20
  %28 = add i32 %27, %2
  %29 = zext i32 %28 to i64
  tail call void %23(ptr noundef %24, ptr noundef %25, i64 noundef %29, i32 noundef 1, i32 noundef 20) #13
  %indvars.iv.next = add nuw nsw i64 %indvars.iv, 1
  %exitcond.not = icmp eq i64 %indvars.iv.next, %wide.trip.count
  br i1 %exitcond.not, label %.loopexit, label %22, !llvm.loop !55

.loopexit:                                        ; preds = %22, %.preheader, %14
  %30 = getelementptr inbounds nuw i8, ptr %0, i64 2104
  %31 = load i32, ptr %30, align 8
  %32 = getelementptr inbounds nuw i8, ptr %0, i64 2096
  %33 = zext i32 %31 to i64
  br label %34

34:                                               ; preds = %37, %.loopexit
  %indvars.iv.i = phi i64 [ %38, %37 ], [ %33, %.loopexit ]
  %35 = trunc nuw i64 %indvars.iv.i to i32
  %36 = icmp sgt i32 %35, 0
  br i1 %36, label %37, label %43

37:                                               ; preds = %34
  %38 = add nsw i64 %indvars.iv.i, -1
  %39 = load ptr, ptr %32, align 8
  %40 = getelementptr inbounds nuw ptr, ptr %39, i64 %38
  %41 = load ptr, ptr %40, align 8
  %42 = icmp eq ptr %41, %7
  br i1 %42, label %VULKAN_INTERNAL_TrackBuffer.exit, label %34, !llvm.loop !45

43:                                               ; preds = %34
  %44 = getelementptr inbounds nuw i8, ptr %0, i64 2108
  %45 = load i32, ptr %44, align 4
  %46 = icmp eq i32 %31, %45
  %.pre.i = load ptr, ptr %32, align 8
  br i1 %46, label %47, label %52

47:                                               ; preds = %43
  %48 = add nsw i32 %31, 1
  store i32 %48, ptr %44, align 4
  %49 = sext i32 %48 to i64
  %50 = shl nsw i64 %49, 3
  %51 = tail call ptr @SDL_realloc_REAL(ptr noundef %.pre.i, i64 noundef %50) #16
  store ptr %51, ptr %32, align 8
  %.pre24.i = load i32, ptr %30, align 8
  br label %52

52:                                               ; preds = %47, %43
  %53 = phi i32 [ %.pre24.i, %47 ], [ %31, %43 ]
  %54 = phi ptr [ %51, %47 ], [ %.pre.i, %43 ]
  %55 = sext i32 %53 to i64
  %56 = getelementptr inbounds ptr, ptr %54, i64 %55
  store ptr %7, ptr %56, align 8
  %57 = load i32, ptr %30, align 8
  %58 = add nsw i32 %57, 1
  store i32 %58, ptr %30, align 8
  %59 = getelementptr inbounds nuw i8, ptr %7, i64 48
  %60 = tail call i32 @SDL_AddAtomicInt_REAL(ptr noundef nonnull %59, i32 noundef 1) #13
  br label %VULKAN_INTERNAL_TrackBuffer.exit

VULKAN_INTERNAL_TrackBuffer.exit:                 ; preds = %37, %52
  ret void
}